; Function Attrs: nofree nounwind uwtable
define void @log_info(ptr noundef readonly captures(none) %0, ...) local_unnamed_addr #2 {
  %2 = alloca [1 x %struct.__va_list_tag], align 16
  call void @llvm.lifetime.start.p0(i64 24, ptr nonnull %2) #23
  call void @llvm.va_start.p0(ptr nonnull %2)
  call void @vlog_info(ptr noundef null, ptr noundef %0, ptr noundef nonnull %2)
  call void @llvm.va_end.p0(ptr nonnull %2)
  call void @llvm.lifetime.end.p0(i64 24, ptr nonnull %2) #23
  ret void
}